target datalayout = "e-m:e-p270:32:32-p271:32:32-p272:64:64-i64:64-i128:128-f80:128-n8:16:32:64-S128"
target triple = "x86_64-pc-linux-gnu"

@.str.14 = private unnamed_addr constant [35 x i8] c"../openssl/test/quic_newcid_test.c\00", align 1
@.str.15 = private unnamed_addr constant [28 x i8] c"Error parsing test options\0A\00", align 1
@.str.16 = private unnamed_addr constant [32 x i8] c"certsdir = test_get_argument(0)\00", align 1
@.str.17 = private unnamed_addr constant [15 x i8] c"servercert.pem\00", align 1
@cert = internal global ptr null, align 8
@.str.18 = private unnamed_addr constant [14 x i8] c"serverkey.pem\00", align 1
@privkey = internal global ptr null, align 8
@.str.19 = private unnamed_addr constant [16 x i8] c"test_ncid_frame\00", align 1

; Function Attrs: nounwind uwtable
define dso_local i32 @setup_tests() #0 {
  %1 = alloca i32, align 4
  %2 = alloca ptr, align 8
  %3 = alloca i32, align 4
  call void @llvm.lifetime.start.p0(i64 8, ptr %2) #4
  store ptr null, ptr %2, align 8, !tbaa !4
  %4 = call i32 @test_skip_common_options()
  %5 = icmp ne i32 %4, 0
  br i1 %5, label %7, label %6

6:                                                ; preds = %0
  call void (ptr, i32, ptr, ...) @test_error(ptr noundef @.str.14, i32 noundef 156, ptr noundef @.str.15)
  store i32 0, ptr %1, align 4
  store i32 1, ptr %3, align 4
  br label %28

7:                                                ; preds = %0
  %8 = call ptr @test_get_argument(i64 noundef 0)
  store ptr %8, ptr %2, align 8, !tbaa !4
  %9 = call i32 @test_ptr(ptr noundef @.str.14, i32 noundef 160, ptr noundef @.str.16, ptr noundef %8)
  %10 = icmp ne i32 %9, 0
  br i1 %10, label %12, label %11

11:                                               ; preds = %7
  store i32 0, ptr %1, align 4
  store i32 1, ptr %3, align 4
  br label %28

12:                                               ; preds = %7
  %13 = load ptr, ptr %2, align 8, !tbaa !4
  %14 = call ptr @test_mk_file_path(ptr noundef %13, ptr noundef @.str.17)
  store ptr %14, ptr @cert, align 8, !tbaa !4
  %15 = load ptr, ptr @cert, align 8, !tbaa !4
  %16 = icmp eq ptr %15, null
  br i1 %16, label %17, label %18

17:                                               ; preds = %12
  br label %25

18:                                               ; preds = %12
  %19 = load ptr, ptr %2, align 8, !tbaa !4
  %20 = call ptr @test_mk_file_path(ptr noundef %19, ptr noundef @.str.18)
  store ptr %20, ptr @privkey, align 8, !tbaa !4
  %21 = load ptr, ptr @privkey, align 8, !tbaa !4
  %22 = icmp eq ptr %21, null
  br i1 %22, label %23, label %24

23:                                               ; preds = %18
  br label %25

24:                                               ; preds = %18
  call void @add_all_tests(ptr noundef @.str.19, ptr noundef @test_ncid_frame, i32 noundef 2, i32 noundef 1)
  store i32 1, ptr %1, align 4
  store i32 1, ptr %3, align 4
  br label %28

25:                                               ; preds = %23, %17
  %26 = load ptr, ptr @cert, align 8, !tbaa !4
  call void @CRYPTO_free(ptr noundef %26, ptr noundef @.str.14, i32 noundef 176)
  %27 = load ptr, ptr @privkey, align 8, !tbaa !4
  call void @CRYPTO_free(ptr noundef %27, ptr noundef @.str.14, i32 noundef 177)
  store i32 0, ptr %1, align 4
  store i32 1, ptr %3, align 4
  br label %28

28:                                               ; preds = %25, %24, %11, %6
  call void @llvm.lifetime.end.p0(i64 8, ptr %2) #4
  %29 = load i32, ptr %1, align 4
  ret i32 %29
}