; Function Attrs: nounwind uwtable
define dso_local range(i32 0, 2) i32 @setup_tests() local_unnamed_addr #1 {
  %1 = tail call i32 @test_skip_common_options() #4
  %.not = icmp eq i32 %1, 0
  br i1 %.not, label %2, label %3

2:                                                ; preds = %0
  tail call void (ptr, i32, ptr, ...) @test_error(ptr noundef nonnull @.str.14, i32 noundef 156, ptr noundef nonnull @.str.15) #4
  br label %16

3:                                                ; preds = %0
  %4 = tail call ptr @test_get_argument(i64 noundef 0) #4
  %5 = tail call i32 @test_ptr(ptr noundef nonnull @.str.14, i32 noundef 160, ptr noundef nonnull @.str.16, ptr noundef %4) #4
  %.not2 = icmp eq i32 %5, 0
  br i1 %.not2, label %16, label %6

6:                                                ; preds = %3
  %7 = tail call ptr @test_mk_file_path(ptr noundef %4, ptr noundef nonnull @.str.17) #4
  store ptr %7, ptr @cert, align 8, !tbaa !4
  %8 = icmp eq ptr %7, null
  br i1 %8, label %13, label %9

9:                                                ; preds = %6
  %10 = tail call ptr @test_mk_file_path(ptr noundef %4, ptr noundef nonnull @.str.18) #4
  store ptr %10, ptr @privkey, align 8, !tbaa !4
  %11 = icmp eq ptr %10, null
  br i1 %11, label %._crit_edge, label %12

._crit_edge:                                      ; preds = %9
  %.pre = load ptr, ptr @cert, align 8, !tbaa !4
  br label %13

12:                                               ; preds = %9
  tail call void @add_all_tests(ptr noundef nonnull @.str.19, ptr noundef nonnull @test_ncid_frame, i32 noundef 2, i32 noundef 1) #4
  br label %16

13:                                               ; preds = %._crit_edge, %6
  %14 = phi ptr [ %.pre, %._crit_edge ], [ null, %6 ]
  tail call void @CRYPTO_free(ptr noundef %14, ptr noundef nonnull @.str.14, i32 noundef 176) #4
  %15 = load ptr, ptr @privkey, align 8, !tbaa !4
  tail call void @CRYPTO_free(ptr noundef %15, ptr noundef nonnull @.str.14, i32 noundef 177) #4
  br label %16

16:                                               ; preds = %3, %13, %12, %2
  %.0 = phi i32 [ 0, %13 ], [ 1, %12 ], [ 0, %2 ], [ 0, %3 ]
  ret i32 %.0
}